; Function Attrs: nofree norecurse nosync nounwind null_pointer_is_valid sspstrong memory(read, argmem: readwrite, inaccessiblemem: none) uwtable
define noundef zeroext i1 @wtap_dump_set_addrinfo_list(ptr noundef captures(address_is_null) %0, ptr noundef %1) local_unnamed_addr #17 {
  %.not = icmp eq ptr %0, null
  br i1 %.not, label %wtap_file_type_subtype_supports_block.exit.thread, label %3

3:                                                ; preds = %2
  %4 = getelementptr inbounds nuw i8, ptr %0, i64 8
  %5 = load i32, ptr %4, align 8
  %6 = icmp slt i32 %5, 0
  br i1 %6, label %wtap_file_type_subtype_supports_block.exit.thread, label %7

7:                                                ; preds = %3
  %8 = load ptr, ptr @file_type_subtype_table_arr, align 8
  %9 = getelementptr inbounds nuw i8, ptr %8, i64 8
  %10 = load i32, ptr %9, align 8
  %.not9 = icmp slt i32 %5, %10
  br i1 %.not9, label %11, label %wtap_file_type_subtype_supports_block.exit.thread

11:                                               ; preds = %7
  %12 = load ptr, ptr @file_type_subtype_table, align 8
  %13 = zext nneg i32 %5 to i64
  %14 = getelementptr %struct.file_type_subtype_info, ptr %12, i64 %13
  %15 = getelementptr inbounds nuw i8, ptr %14, i64 40
  %16 = load i64, ptr %15, align 8
  %17 = getelementptr inbounds nuw i8, ptr %14, i64 48
  %18 = load ptr, ptr %17, align 8
  %.not1617.not.i = icmp eq i64 %16, 0
  br i1 %.not1617.not.i, label %wtap_file_type_subtype_supports_block.exit.thread, label %.lr.ph.i

19:                                               ; preds = %.lr.ph.i
  %20 = add nuw i64 %.018.i, 1
  %exitcond.not.i = icmp eq i64 %20, %16
  br i1 %exitcond.not.i, label %wtap_file_type_subtype_supports_block.exit.thread, label %.lr.ph.i, !llvm.loop !32

.lr.ph.i:                                         ; preds = %11, %19
  %.018.i = phi i64 [ %20, %19 ], [ 0, %11 ]
  %21 = getelementptr %struct.supported_block_type, ptr %18, i64 %.018.i
  %22 = load i32, ptr %21, align 8
  %23 = icmp eq i32 %22, 2
  br i1 %23, label %wtap_file_type_subtype_supports_block.exit, label %19

wtap_file_type_subtype_supports_block.exit:       ; preds = %.lr.ph.i
  %24 = getelementptr inbounds nuw i8, ptr %21, i64 4
  %25 = load i32, ptr %24, align 4
  %26 = icmp eq i32 %25, 0
  br i1 %26, label %wtap_file_type_subtype_supports_block.exit.thread, label %27

27:                                               ; preds = %wtap_file_type_subtype_supports_block.exit
  %28 = getelementptr inbounds nuw i8, ptr %0, i64 80
  store ptr %1, ptr %28, align 8
  br label %wtap_file_type_subtype_supports_block.exit.thread

wtap_file_type_subtype_supports_block.exit.thread: ; preds = %19, %11, %2, %3, %7, %wtap_file_type_subtype_supports_block.exit, %27
  %.0 = phi i1 [ true, %27 ], [ false, %wtap_file_type_subtype_supports_block.exit ], [ false, %7 ], [ false, %3 ], [ false, %2 ], [ false, %11 ], [ false, %19 ]
  ret i1 %.0
}